; Function Attrs: mustprogress uwtable
define hidden void @_ZNK16bound_propagator17display_bounds_ofERSoRK15linear_equation(ptr nocapture noundef nonnull readonly align 8 dereferenceable(280) %this, ptr noundef nonnull align 8 dereferenceable(8) %out, ptr nocapture noundef nonnull readonly align 8 dereferenceable(32) %eq) local_unnamed_addr #3 align 2 {
entry:
  %0 = load i32, ptr %eq, align 8
  %cmp5.not = icmp eq i32 %0, 0
  br i1 %cmp5.not, label %for.end, label %for.body.lr.ph

for.body.lr.ph:                                   ; preds = %entry
  %m_xs.i = getelementptr inbounds i8, ptr %eq, i64 24
  br label %for.body

for.body:                                         ; preds = %for.body.lr.ph, %for.body
  %indvars.iv = phi i64 [ 0, %for.body.lr.ph ], [ %indvars.iv.next, %for.body ]
  %1 = load ptr, ptr %m_xs.i, align 8
  %arrayidx.i = getelementptr inbounds i32, ptr %1, i64 %indvars.iv
  %2 = load i32, ptr %arrayidx.i, align 4
  tail call void @_ZNK16bound_propagator18display_var_boundsERSojbb(ptr noundef nonnull align 8 dereferenceable(280) %this, ptr noundef nonnull align 8 dereferenceable(8) %out, i32 noundef %2, i1 noundef zeroext true, i1 noundef zeroext true)
  %call3 = tail call noundef nonnull align 8 dereferenceable(8) ptr @_ZStlsISt11char_traitsIcEERSt13basic_ostreamIcT_ES5_PKc(ptr noundef nonnull align 8 dereferenceable(8) %out, ptr noundef nonnull @.str.11)
  %indvars.iv.next = add nuw nsw i64 %indvars.iv, 1
  %3 = load i32, ptr %eq, align 8
  %4 = zext i32 %3 to i64
  %cmp = icmp ult i64 %indvars.iv.next, %4
  br i1 %cmp, label %for.body, label %for.end, !llvm.loop !24

for.end:                                          ; preds = %for.body, %entry
  ret void
}